; ModuleID = '29/552.c'
source_filename = "29/552.c"
target datalayout = "e-m:e-p270:32:32-p271:32:32-p272:64:64-i64:64-f80:128-n8:16:32:64-S128"
target triple = "x86_64-pc-linux-gnu"

@.str = private unnamed_addr constant [3 x i8] c"%d\00", align 1
@.str.1 = private unnamed_addr constant [6 x i8] c"%.3lf\00", align 1
@.str.2 = private unnamed_addr constant [7 x i8] c"\0A%.3lf\00", align 1

; Function Attrs: noinline nounwind uwtable
define dso_local i32 @main() #0 {
  %1 = alloca i32, align 4
  %2 = alloca i32, align 4
  %3 = alloca i32, align 4
  %4 = alloca i32, align 4
  %5 = alloca i32, align 4
  %6 = alloca i32, align 4
  %7 = alloca double, align 8
  %8 = alloca double, align 8
  %9 = alloca i32, align 4
  %10 = alloca i32, align 4
  store i32 0, i32* %1, align 4
  store double 0.000000e+00, double* %8, align 8
  %11 = call i32 (i8*, ...) @__isoc99_scanf(i8* getelementptr inbounds ([3 x i8], [3 x i8]* @.str, i64 0, i64 0), i32* %2)
  store i32 0, i32* %4, align 4
  br label %12

12:                                               ; preds = %73, %0
  %13 = load i32, i32* %4, align 4
  %14 = load i32, i32* %2, align 4
  %15 = icmp slt i32 %13, %14
  br i1 %15, label %16, label %76

16:                                               ; preds = %12
  %17 = call i32 (i8*, ...) @__isoc99_scanf(i8* getelementptr inbounds ([3 x i8], [3 x i8]* @.str, i64 0, i64 0), i32* %3)
  %18 = load i32, i32* %4, align 4
  %19 = icmp eq i32 %18, 0
  br i1 %19, label %20, label %46

20:                                               ; preds = %16
  store i32 2, i32* %9, align 4
  store i32 1, i32* %10, align 4
  store i32 0, i32* %6, align 4
  br label %21

21:                                               ; preds = %40, %20
  %22 = load i32, i32* %6, align 4
  %23 = load i32, i32* %3, align 4
  %24 = icmp slt i32 %22, %23
  br i1 %24, label %25, label %43

25:                                               ; preds = %21
  %26 = load i32, i32* %9, align 4
  %27 = sitofp i32 %26 to double
  %28 = fmul double 1.000000e+00, %27
  %29 = load i32, i32* %10, align 4
  %30 = sitofp i32 %29 to double
  %31 = fdiv double %28, %30
  store double %31, double* %7, align 8
  %32 = load double, double* %8, align 8
  %33 = load double, double* %7, align 8
  %34 = fadd double %32, %33
  store double %34, double* %8, align 8
  %35 = load i32, i32* %9, align 4
  store i32 %35, i32* %5, align 4
  %36 = load i32, i32* %9, align 4
  %37 = load i32, i32* %10, align 4
  %38 = add nsw i32 %36, %37
  store i32 %38, i32* %9, align 4
  %39 = load i32, i32* %5, align 4
  store i32 %39, i32* %10, align 4
  br label %40

40:                                               ; preds = %25
  %41 = load i32, i32* %6, align 4
  %42 = add nsw i32 %41, 1
  store i32 %42, i32* %6, align 4
  br label %21

43:                                               ; preds = %21
  %44 = load double, double* %8, align 8
  %45 = call i32 (i8*, ...) @printf(i8* getelementptr inbounds ([6 x i8], [6 x i8]* @.str.1, i64 0, i64 0), double %44)
  br label %72

46:                                               ; preds = %16
  store double 0.000000e+00, double* %8, align 8
  store i32 2, i32* %9, align 4
  store i32 1, i32* %10, align 4
  store i32 0, i32* %6, align 4
  br label %47

47:                                               ; preds = %66, %46
  %48 = load i32, i32* %6, align 4
  %49 = load i32, i32* %3, align 4
  %50 = icmp slt i32 %48, %49
  br i1 %50, label %51, label %69

51:                                               ; preds = %47
  %52 = load i32, i32* %9, align 4
  %53 = sitofp i32 %52 to double
  %54 = fmul double 1.000000e+00, %53
  %55 = load i32, i32* %10, align 4
  %56 = sitofp i32 %55 to double
  %57 = fdiv double %54, %56
  store double %57, double* %7, align 8
  %58 = load double, double* %8, align 8
  %59 = load double, double* %7, align 8
  %60 = fadd double %58, %59
  store double %60, double* %8, align 8
  %61 = load i32, i32* %9, align 4
  store i32 %61, i32* %5, align 4
  %62 = load i32, i32* %9, align 4
  %63 = load i32, i32* %10, align 4
  %64 = add nsw i32 %62, %63
  store i32 %64, i32* %9, align 4
  %65 = load i32, i32* %5, align 4
  store i32 %65, i32* %10, align 4
  br label %66

66:                                               ; preds = %51
  %67 = load i32, i32* %6, align 4
  %68 = add nsw i32 %67, 1
  store i32 %68, i32* %6, align 4
  br label %47

69:                                               ; preds = %47
  %70 = load double, double* %8, align 8
  %71 = call i32 (i8*, ...) @printf(i8* getelementptr inbounds ([7 x i8], [7 x i8]* @.str.2, i64 0, i64 0), double %70)
  br label %72

72:                                               ; preds = %69, %43
  br label %73

73:                                               ; preds = %72
  %74 = load i32, i32* %4, align 4
  %75 = add nsw i32 %74, 1
  store i32 %75, i32* %4, align 4
  br label %12

76:                                               ; preds = %12
  ret i32 0
}

declare dso_local i32 @__isoc99_scanf(i8*, ...) #1

declare dso_local i32 @printf(i8*, ...) #1


!llvm.module.flags = !{!0}
!llvm.ident = !{!1}

!0 = !{i32 1, !"wchar_size", i32 4}
!1 = !{!"clang version 10.0.0-4ubuntu1 "}
